; Function Attrs: mustprogress nofree norecurse nosync nounwind willreturn memory(read, inaccessiblemem: none) uwtable
define hidden noundef i64 @_ZNK10duckdb_re211StringPiece4findEcm(ptr noundef nonnull readonly align 8 captures(none) dereferenceable(16) %0, i8 noundef signext %1, i64 noundef %2) local_unnamed_addr #5 align 2 {
  %4 = getelementptr inbounds nuw i8, ptr %0, i64 8
  %5 = load i64, ptr %4, align 8, !tbaa !3
  %.not = icmp ult i64 %2, %5
  br i1 %.not, label %6, label %53

6:                                                ; preds = %3
  %7 = load ptr, ptr %0, align 8, !tbaa !10
  %8 = getelementptr inbounds nuw i8, ptr %7, i64 %2
  %9 = getelementptr inbounds nuw i8, ptr %7, i64 %5
  %10 = ptrtoint ptr %9 to i64
  %gepdiff = sub nuw nsw i64 %5, %2
  %11 = ashr i64 %gepdiff, 2
  %12 = icmp sgt i64 %11, 0
  br i1 %12, label %.lr.ph.i.i.i, label %._crit_edge.i.i.i

.lr.ph.i.i.i:                                     ; preds = %6
  %13 = and i64 %gepdiff, -4
  %scevgep.i.i.i = getelementptr i8, ptr %8, i64 %13
  br label %14

14:                                               ; preds = %29, %.lr.ph.i.i.i
  %.047.i.i.i = phi i64 [ %11, %.lr.ph.i.i.i ], [ %31, %29 ]
  %.02946.i.i.i = phi ptr [ %8, %.lr.ph.i.i.i ], [ %30, %29 ]
  %15 = load i8, ptr %.02946.i.i.i, align 1, !tbaa !11
  %16 = icmp eq i8 %15, %1
  br i1 %16, label %_ZSt4findIPKccET_S2_S2_RKT0_.exit, label %17

17:                                               ; preds = %14
  %18 = getelementptr inbounds nuw i8, ptr %.02946.i.i.i, i64 1
  %19 = load i8, ptr %18, align 1, !tbaa !11
  %20 = icmp eq i8 %19, %1
  br i1 %20, label %_ZSt4findIPKccET_S2_S2_RKT0_.exit.loopexit.split.loop.exit, label %21

21:                                               ; preds = %17
  %22 = getelementptr inbounds nuw i8, ptr %.02946.i.i.i, i64 2
  %23 = load i8, ptr %22, align 1, !tbaa !11
  %24 = icmp eq i8 %23, %1
  br i1 %24, label %_ZSt4findIPKccET_S2_S2_RKT0_.exit.loopexit.split.loop.exit24, label %25

25:                                               ; preds = %21
  %26 = getelementptr inbounds nuw i8, ptr %.02946.i.i.i, i64 3
  %27 = load i8, ptr %26, align 1, !tbaa !11
  %28 = icmp eq i8 %27, %1
  br i1 %28, label %_ZSt4findIPKccET_S2_S2_RKT0_.exit.loopexit.split.loop.exit26, label %29

29:                                               ; preds = %25
  %30 = getelementptr inbounds nuw i8, ptr %.02946.i.i.i, i64 4
  %31 = add nsw i64 %.047.i.i.i, -1
  %32 = icmp sgt i64 %.047.i.i.i, 1
  br i1 %32, label %14, label %._crit_edge.i.i.i, !llvm.loop !12

._crit_edge.i.i.i:                                ; preds = %29, %6
  %.029.lcssa.i.i.i = phi ptr [ %8, %6 ], [ %scevgep.i.i.i, %29 ]
  %.pre-phi.i.i.i = ptrtoint ptr %.029.lcssa.i.i.i to i64
  %33 = sub i64 %10, %.pre-phi.i.i.i
  switch i64 %33, label %45 [
    i64 3, label %34
    i64 2, label %._crit_edge._crit_edge.i.i.i
    i64 1, label %._crit_edge._crit_edge52.i.i.i
  ]

34:                                               ; preds = %._crit_edge.i.i.i
  %35 = load i8, ptr %.029.lcssa.i.i.i, align 1, !tbaa !11
  %36 = icmp eq i8 %35, %1
  br i1 %36, label %_ZSt4findIPKccET_S2_S2_RKT0_.exit, label %37

37:                                               ; preds = %34
  %38 = getelementptr inbounds nuw i8, ptr %.029.lcssa.i.i.i, i64 1
  br label %._crit_edge._crit_edge.i.i.i

._crit_edge._crit_edge.i.i.i:                     ; preds = %._crit_edge.i.i.i, %37
  %.1.i.i.i = phi ptr [ %38, %37 ], [ %.029.lcssa.i.i.i, %._crit_edge.i.i.i ]
  %39 = load i8, ptr %.1.i.i.i, align 1, !tbaa !11
  %40 = icmp eq i8 %39, %1
  br i1 %40, label %_ZSt4findIPKccET_S2_S2_RKT0_.exit, label %41

41:                                               ; preds = %._crit_edge._crit_edge.i.i.i
  %42 = getelementptr inbounds nuw i8, ptr %.1.i.i.i, i64 1
  br label %._crit_edge._crit_edge52.i.i.i

._crit_edge._crit_edge52.i.i.i:                   ; preds = %._crit_edge.i.i.i, %41
  %.2.i.i.i = phi ptr [ %42, %41 ], [ %.029.lcssa.i.i.i, %._crit_edge.i.i.i ]
  %43 = load i8, ptr %.2.i.i.i, align 1, !tbaa !11
  %44 = icmp eq i8 %43, %1
  br i1 %44, label %_ZSt4findIPKccET_S2_S2_RKT0_.exit, label %45

45:                                               ; preds = %._crit_edge._crit_edge52.i.i.i, %._crit_edge.i.i.i
  br label %_ZSt4findIPKccET_S2_S2_RKT0_.exit

_ZSt4findIPKccET_S2_S2_RKT0_.exit.loopexit.split.loop.exit: ; preds = %17
  %46 = getelementptr inbounds nuw i8, ptr %.02946.i.i.i, i64 1
  br label %_ZSt4findIPKccET_S2_S2_RKT0_.exit

_ZSt4findIPKccET_S2_S2_RKT0_.exit.loopexit.split.loop.exit24: ; preds = %21
  %47 = getelementptr inbounds nuw i8, ptr %.02946.i.i.i, i64 2
  br label %_ZSt4findIPKccET_S2_S2_RKT0_.exit

_ZSt4findIPKccET_S2_S2_RKT0_.exit.loopexit.split.loop.exit26: ; preds = %25
  %48 = getelementptr inbounds nuw i8, ptr %.02946.i.i.i, i64 3
  br label %_ZSt4findIPKccET_S2_S2_RKT0_.exit

_ZSt4findIPKccET_S2_S2_RKT0_.exit:                ; preds = %14, %_ZSt4findIPKccET_S2_S2_RKT0_.exit.loopexit.split.loop.exit, %_ZSt4findIPKccET_S2_S2_RKT0_.exit.loopexit.split.loop.exit24, %_ZSt4findIPKccET_S2_S2_RKT0_.exit.loopexit.split.loop.exit26, %34, %._crit_edge._crit_edge.i.i.i, %._crit_edge._crit_edge52.i.i.i, %45
  %.028.i.i.i = phi ptr [ %9, %45 ], [ %.029.lcssa.i.i.i, %34 ], [ %.1.i.i.i, %._crit_edge._crit_edge.i.i.i ], [ %.2.i.i.i, %._crit_edge._crit_edge52.i.i.i ], [ %46, %_ZSt4findIPKccET_S2_S2_RKT0_.exit.loopexit.split.loop.exit ], [ %47, %_ZSt4findIPKccET_S2_S2_RKT0_.exit.loopexit.split.loop.exit24 ], [ %48, %_ZSt4findIPKccET_S2_S2_RKT0_.exit.loopexit.split.loop.exit26 ], [ %.02946.i.i.i, %14 ]
  %.not8 = icmp eq ptr %.028.i.i.i, %9
  %49 = ptrtoint ptr %.028.i.i.i to i64
  %50 = ptrtoint ptr %7 to i64
  %51 = sub i64 %49, %50
  %52 = select i1 %.not8, i64 -1, i64 %51
  br label %53

53:                                               ; preds = %3, %_ZSt4findIPKccET_S2_S2_RKT0_.exit
  %.0 = phi i64 [ %52, %_ZSt4findIPKccET_S2_S2_RKT0_.exit ], [ -1, %3 ]
  ret i64 %.0
}